; Function Attrs: mustprogress nounwind uwtable
define internal void @_ZN12_GLOBAL__N_113CrcMemcpyTestILm4500EED2Ev(ptr noundef nonnull align 8 dereferenceable(320) %this) unnamed_addr #4 align 2 {
entry:
  store ptr getelementptr inbounds ({ [8 x ptr] }, ptr @_ZTVN12_GLOBAL__N_113CrcMemcpyTestILm4500EEE, i64 0, i32 0, i64 2), ptr %this, align 8
  %destination_ = getelementptr inbounds i8, ptr %this, i64 24
  %0 = load ptr, ptr %destination_, align 8
  %cmp.not.i = icmp eq ptr %0, null
  br i1 %cmp.not.i, label %_ZNSt10unique_ptrIA_cSt14default_deleteIS0_EED2Ev.exit, label %_ZNKSt14default_deleteIA_cEclIcEENSt9enable_ifIXsr14is_convertibleIPA_T_PS0_EE5valueEvE4typeEPS4_.exit.i

_ZNKSt14default_deleteIA_cEclIcEENSt9enable_ifIXsr14is_convertibleIPA_T_PS0_EE5valueEvE4typeEPS4_.exit.i: ; preds = %entry
  tail call void @_ZdaPv(ptr noundef nonnull %0) #30
  br label %_ZNSt10unique_ptrIA_cSt14default_deleteIS0_EED2Ev.exit

_ZNSt10unique_ptrIA_cSt14default_deleteIS0_EED2Ev.exit: ; preds = %entry, %_ZNKSt14default_deleteIA_cEclIcEENSt9enable_ifIXsr14is_convertibleIPA_T_PS0_EE5valueEvE4typeEPS4_.exit.i
  store ptr null, ptr %destination_, align 8
  %source_ = getelementptr inbounds i8, ptr %this, i64 16
  %1 = load ptr, ptr %source_, align 8
  %cmp.not.i1 = icmp eq ptr %1, null
  br i1 %cmp.not.i1, label %_ZNSt10unique_ptrIA_cSt14default_deleteIS0_EED2Ev.exit3, label %_ZNKSt14default_deleteIA_cEclIcEENSt9enable_ifIXsr14is_convertibleIPA_T_PS0_EE5valueEvE4typeEPS4_.exit.i2

_ZNKSt14default_deleteIA_cEclIcEENSt9enable_ifIXsr14is_convertibleIPA_T_PS0_EE5valueEvE4typeEPS4_.exit.i2: ; preds = %_ZNSt10unique_ptrIA_cSt14default_deleteIS0_EED2Ev.exit
  tail call void @_ZdaPv(ptr noundef nonnull %1) #30
  br label %_ZNSt10unique_ptrIA_cSt14default_deleteIS0_EED2Ev.exit3

_ZNSt10unique_ptrIA_cSt14default_deleteIS0_EED2Ev.exit3: ; preds = %_ZNSt10unique_ptrIA_cSt14default_deleteIS0_EED2Ev.exit, %_ZNKSt14default_deleteIA_cEclIcEENSt9enable_ifIXsr14is_convertibleIPA_T_PS0_EE5valueEvE4typeEPS4_.exit.i2
  store ptr null, ptr %source_, align 8
  tail call void @_ZN7testing4TestD2Ev(ptr noundef nonnull align 8 dereferenceable(16) %this) #26
  ret void
}